; Function Attrs: mustprogress nofree norecurse nosync nounwind willreturn memory(readwrite, inaccessiblemem: none) uwtable
define void @_ZN3gmx20InMemoryDeserializer8doOpaqueEPcm(ptr nocapture noundef nonnull readonly align 8 dereferenceable(16) %0, ptr nocapture noundef writeonly %1, i64 noundef %2) unnamed_addr #2 align 2 {
  %4 = getelementptr inbounds i8, ptr %0, i64 8
  %5 = load ptr, ptr %4, align 8
  %6 = getelementptr inbounds i8, ptr %5, i64 24
  %7 = load i64, ptr %6, align 8
  %.not.i.i.i.i.i.i = icmp eq i64 %2, 0
  br i1 %.not.i.i.i.i.i.i, label %_ZN3gmx20InMemoryDeserializer4Impl8doOpaqueEPcm.exit, label %8

8:                                                ; preds = %3
  %9 = load i64, ptr %5, align 8
  %10 = inttoptr i64 %9 to ptr
  %11 = getelementptr i8, ptr %10, i64 %7
  tail call void @llvm.memmove.p0.p0.i64(ptr align 1 %1, ptr align 1 %11, i64 %2, i1 false)
  %.pre.i = load i64, ptr %6, align 8
  br label %_ZN3gmx20InMemoryDeserializer4Impl8doOpaqueEPcm.exit

_ZN3gmx20InMemoryDeserializer4Impl8doOpaqueEPcm.exit: ; preds = %3, %8
  %12 = phi i64 [ %7, %3 ], [ %.pre.i, %8 ]
  %13 = add i64 %12, %2
  store i64 %13, ptr %6, align 8
  ret void
}